target datalayout = "e-m:e-p270:32:32-p271:32:32-p272:64:64-i64:64-i128:128-f80:128-n8:16:32:64-S128"
target triple = "x86_64-pc-linux-gnu"

%struct.ARKodeSPRKTableMem = type { i32, i32, ptr, ptr }

; Function Attrs: nounwind uwtable
define void @ARKodeSPRKTable_Free(ptr noundef %0) #0 {
  %2 = alloca ptr, align 8
  store ptr %0, ptr %2, align 8, !tbaa !10
  %3 = load ptr, ptr %2, align 8, !tbaa !10
  %4 = icmp ne ptr %3, null
  br i1 %4, label %5, label %25

5:                                                ; preds = %1
  %6 = load ptr, ptr %2, align 8, !tbaa !10
  %7 = getelementptr inbounds nuw %struct.ARKodeSPRKTableMem, ptr %6, i32 0, i32 3
  %8 = load ptr, ptr %7, align 8, !tbaa !18
  %9 = icmp ne ptr %8, null
  br i1 %9, label %10, label %14

10:                                               ; preds = %5
  %11 = load ptr, ptr %2, align 8, !tbaa !10
  %12 = getelementptr inbounds nuw %struct.ARKodeSPRKTableMem, ptr %11, i32 0, i32 3
  %13 = load ptr, ptr %12, align 8, !tbaa !18
  call void @free(ptr noundef %13) #8
  br label %14

14:                                               ; preds = %10, %5
  %15 = load ptr, ptr %2, align 8, !tbaa !10
  %16 = getelementptr inbounds nuw %struct.ARKodeSPRKTableMem, ptr %15, i32 0, i32 2
  %17 = load ptr, ptr %16, align 8, !tbaa !17
  %18 = icmp ne ptr %17, null
  br i1 %18, label %19, label %23

19:                                               ; preds = %14
  %20 = load ptr, ptr %2, align 8, !tbaa !10
  %21 = getelementptr inbounds nuw %struct.ARKodeSPRKTableMem, ptr %20, i32 0, i32 2
  %22 = load ptr, ptr %21, align 8, !tbaa !17
  call void @free(ptr noundef %22) #8
  br label %23

23:                                               ; preds = %19, %14
  %24 = load ptr, ptr %2, align 8, !tbaa !10
  call void @free(ptr noundef %24) #8
  br label %25

25:                                               ; preds = %23, %1
  ret void
}

; Function Attrs: nounwind uwtable
define ptr @ARKodeSPRKTable_Alloc(i32 noundef %0) #0 {
  %2 = alloca ptr, align 8
  %3 = alloca i32, align 4
  %4 = alloca ptr, align 8
  %5 = alloca i32, align 4
  store i32 %0, ptr %3, align 4, !tbaa !3
  call void @llvm.lifetime.start.p0(i64 8, ptr %4) #8
  store ptr null, ptr %4, align 8, !tbaa !10
  %6 = call noalias ptr @malloc(i64 noundef 24) #9
  store ptr %6, ptr %4, align 8, !tbaa !10
  %7 = load ptr, ptr %4, align 8, !tbaa !10
  %8 = icmp ne ptr %7, null
  br i1 %8, label %10, label %9

9:                                                ; preds = %1
  store ptr null, ptr %2, align 8
  store i32 1, ptr %5, align 4
  br label %42

10:                                               ; preds = %1
  %11 = load ptr, ptr %4, align 8, !tbaa !10
  call void @llvm.memset.p0.i64(ptr align 8 %11, i8 0, i64 24, i1 false)
  %12 = load i32, ptr %3, align 4, !tbaa !3
  %13 = sext i32 %12 to i64
  %14 = mul i64 %13, 8
  %15 = call noalias ptr @malloc(i64 noundef %14) #9
  %16 = load ptr, ptr %4, align 8, !tbaa !10
  %17 = getelementptr inbounds nuw %struct.ARKodeSPRKTableMem, ptr %16, i32 0, i32 3
  store ptr %15, ptr %17, align 8, !tbaa !18
  %18 = load ptr, ptr %4, align 8, !tbaa !10
  %19 = getelementptr inbounds nuw %struct.ARKodeSPRKTableMem, ptr %18, i32 0, i32 3
  %20 = load ptr, ptr %19, align 8, !tbaa !18
  %21 = icmp ne ptr %20, null
  br i1 %21, label %24, label %22

22:                                               ; preds = %10
  %23 = load ptr, ptr %4, align 8, !tbaa !10
  call void @ARKodeSPRKTable_Free(ptr noundef %23)
  store ptr null, ptr %2, align 8
  store i32 1, ptr %5, align 4
  br label %42

24:                                               ; preds = %10
  %25 = load i32, ptr %3, align 4, !tbaa !3
  %26 = sext i32 %25 to i64
  %27 = mul i64 %26, 8
  %28 = call noalias ptr @malloc(i64 noundef %27) #9
  %29 = load ptr, ptr %4, align 8, !tbaa !10
  %30 = getelementptr inbounds nuw %struct.ARKodeSPRKTableMem, ptr %29, i32 0, i32 2
  store ptr %28, ptr %30, align 8, !tbaa !17
  %31 = load ptr, ptr %4, align 8, !tbaa !10
  %32 = getelementptr inbounds nuw %struct.ARKodeSPRKTableMem, ptr %31, i32 0, i32 2
  %33 = load ptr, ptr %32, align 8, !tbaa !17
  %34 = icmp ne ptr %33, null
  br i1 %34, label %37, label %35

35:                                               ; preds = %24
  %36 = load ptr, ptr %4, align 8, !tbaa !10
  call void @ARKodeSPRKTable_Free(ptr noundef %36)
  store ptr null, ptr %2, align 8
  store i32 1, ptr %5, align 4
  br label %42

37:                                               ; preds = %24
  %38 = load i32, ptr %3, align 4, !tbaa !3
  %39 = load ptr, ptr %4, align 8, !tbaa !10
  %40 = getelementptr inbounds nuw %struct.ARKodeSPRKTableMem, ptr %39, i32 0, i32 1
  store i32 %38, ptr %40, align 4, !tbaa !12
  %41 = load ptr, ptr %4, align 8, !tbaa !10
  store ptr %41, ptr %2, align 8
  store i32 1, ptr %5, align 4
  br label %42

42:                                               ; preds = %37, %35, %22, %9
  call void @llvm.lifetime.end.p0(i64 8, ptr %4) #8
  %43 = load ptr, ptr %2, align 8
  ret ptr %43
}

; Function Attrs: nounwind uwtable
define internal ptr @arkodeSymplecticYoshida6() #0 {
  %1 = alloca ptr, align 8
  %2 = alloca ptr, align 8
  %3 = alloca i32, align 4
  call void @llvm.lifetime.start.p0(i64 8, ptr %2) #8
  %4 = call ptr @ARKodeSPRKTable_Alloc(i32 noundef 8)
  store ptr %4, ptr %2, align 8, !tbaa !10
  %5 = load ptr, ptr %2, align 8, !tbaa !10
  %6 = icmp ne ptr %5, null
  br i1 %6, label %8, label %7

7:                                                ; preds = %0
  store ptr null, ptr %1, align 8
  store i32 1, ptr %3, align 4
  br label %155

8:                                                ; preds = %0
  %9 = load ptr, ptr %2, align 8, !tbaa !10
  %10 = getelementptr inbounds nuw %struct.ARKodeSPRKTableMem, ptr %9, i32 0, i32 0
  store i32 6, ptr %10, align 8, !tbaa !14
  %11 = load ptr, ptr %2, align 8, !tbaa !10
  %12 = getelementptr inbounds nuw %struct.ARKodeSPRKTableMem, ptr %11, i32 0, i32 1
  store i32 8, ptr %12, align 4, !tbaa !12
  %13 = load ptr, ptr %2, align 8, !tbaa !10
  %14 = getelementptr inbounds nuw %struct.ARKodeSPRKTableMem, ptr %13, i32 0, i32 2
  %15 = load ptr, ptr %14, align 8, !tbaa !17
  %16 = getelementptr inbounds double, ptr %15, i64 0
  store double 0x3FE91ABC49889363, ptr %16, align 8, !tbaa !15
  %17 = load ptr, ptr %2, align 8, !tbaa !10
  %18 = getelementptr inbounds nuw %struct.ARKodeSPRKTableMem, ptr %17, i32 0, i32 2
  %19 = load ptr, ptr %18, align 8, !tbaa !17
  %20 = getelementptr inbounds double, ptr %19, i64 1
  store double 0x3FCE2743579895DD, ptr %20, align 8, !tbaa !15
  %21 = load ptr, ptr %2, align 8, !tbaa !10
  %22 = getelementptr inbounds nuw %struct.ARKodeSPRKTableMem, ptr %21, i32 0, i32 2
  %23 = load ptr, ptr %22, align 8, !tbaa !17
  %24 = getelementptr inbounds double, ptr %23, i64 2
  store double 0xBFF2D7C6F7933B97, ptr %24, align 8, !tbaa !15
  %25 = load ptr, ptr %2, align 8, !tbaa !10
  %26 = getelementptr inbounds nuw %struct.ARKodeSPRKTableMem, ptr %25, i32 0, i32 2
  %27 = load ptr, ptr %26, align 8, !tbaa !17
  %28 = getelementptr inbounds double, ptr %27, i64 3
  store double 0x3FF50B00CFB7BE54, ptr %28, align 8, !tbaa !15
  %29 = load ptr, ptr %2, align 8, !tbaa !10
  %30 = getelementptr inbounds nuw %struct.ARKodeSPRKTableMem, ptr %29, i32 0, i32 2
  %31 = load ptr, ptr %30, align 8, !tbaa !17
  %32 = getelementptr inbounds double, ptr %31, i64 2
  %33 = load double, ptr %32, align 8, !tbaa !15
  %34 = load ptr, ptr %2, align 8, !tbaa !10
  %35 = getelementptr inbounds nuw %struct.ARKodeSPRKTableMem, ptr %34, i32 0, i32 2
  %36 = load ptr, ptr %35, align 8, !tbaa !17
  %37 = getelementptr inbounds double, ptr %36, i64 4
  store double %33, ptr %37, align 8, !tbaa !15
  %38 = load ptr, ptr %2, align 8, !tbaa !10
  %39 = getelementptr inbounds nuw %struct.ARKodeSPRKTableMem, ptr %38, i32 0, i32 2
  %40 = load ptr, ptr %39, align 8, !tbaa !17
  %41 = getelementptr inbounds double, ptr %40, i64 1
  %42 = load double, ptr %41, align 8, !tbaa !15
  %43 = load ptr, ptr %2, align 8, !tbaa !10
  %44 = getelementptr inbounds nuw %struct.ARKodeSPRKTableMem, ptr %43, i32 0, i32 2
  %45 = load ptr, ptr %44, align 8, !tbaa !17
  %46 = getelementptr inbounds double, ptr %45, i64 5
  store double %42, ptr %46, align 8, !tbaa !15
  %47 = load ptr, ptr %2, align 8, !tbaa !10
  %48 = getelementptr inbounds nuw %struct.ARKodeSPRKTableMem, ptr %47, i32 0, i32 2
  %49 = load ptr, ptr %48, align 8, !tbaa !17
  %50 = getelementptr inbounds double, ptr %49, i64 0
  %51 = load double, ptr %50, align 8, !tbaa !15
  %52 = load ptr, ptr %2, align 8, !tbaa !10
  %53 = getelementptr inbounds nuw %struct.ARKodeSPRKTableMem, ptr %52, i32 0, i32 2
  %54 = load ptr, ptr %53, align 8, !tbaa !17
  %55 = getelementptr inbounds double, ptr %54, i64 6
  store double %51, ptr %55, align 8, !tbaa !15
  %56 = load ptr, ptr %2, align 8, !tbaa !10
  %57 = getelementptr inbounds nuw %struct.ARKodeSPRKTableMem, ptr %56, i32 0, i32 2
  %58 = load ptr, ptr %57, align 8, !tbaa !17
  %59 = getelementptr inbounds double, ptr %58, i64 7
  store double 0.000000e+00, ptr %59, align 8, !tbaa !15
  %60 = load ptr, ptr %2, align 8, !tbaa !10
  %61 = getelementptr inbounds nuw %struct.ARKodeSPRKTableMem, ptr %60, i32 0, i32 2
  %62 = load ptr, ptr %61, align 8, !tbaa !17
  %63 = getelementptr inbounds double, ptr %62, i64 0
  %64 = load double, ptr %63, align 8, !tbaa !15
  %65 = fdiv double %64, 2.000000e+00
  %66 = load ptr, ptr %2, align 8, !tbaa !10
  %67 = getelementptr inbounds nuw %struct.ARKodeSPRKTableMem, ptr %66, i32 0, i32 3
  %68 = load ptr, ptr %67, align 8, !tbaa !18
  %69 = getelementptr inbounds double, ptr %68, i64 0
  store double %65, ptr %69, align 8, !tbaa !15
  %70 = load ptr, ptr %2, align 8, !tbaa !10
  %71 = getelementptr inbounds nuw %struct.ARKodeSPRKTableMem, ptr %70, i32 0, i32 2
  %72 = load ptr, ptr %71, align 8, !tbaa !17
  %73 = getelementptr inbounds double, ptr %72, i64 0
  %74 = load double, ptr %73, align 8, !tbaa !15
  %75 = load ptr, ptr %2, align 8, !tbaa !10
  %76 = getelementptr inbounds nuw %struct.ARKodeSPRKTableMem, ptr %75, i32 0, i32 2
  %77 = load ptr, ptr %76, align 8, !tbaa !17
  %78 = getelementptr inbounds double, ptr %77, i64 1
  %79 = load double, ptr %78, align 8, !tbaa !15
  %80 = fadd double %74, %79
  %81 = fdiv double %80, 2.000000e+00
  %82 = load ptr, ptr %2, align 8, !tbaa !10
  %83 = getelementptr inbounds nuw %struct.ARKodeSPRKTableMem, ptr %82, i32 0, i32 3
  %84 = load ptr, ptr %83, align 8, !tbaa !18
  %85 = getelementptr inbounds double, ptr %84, i64 1
  store double %81, ptr %85, align 8, !tbaa !15
  %86 = load ptr, ptr %2, align 8, !tbaa !10
  %87 = getelementptr inbounds nuw %struct.ARKodeSPRKTableMem, ptr %86, i32 0, i32 2
  %88 = load ptr, ptr %87, align 8, !tbaa !17
  %89 = getelementptr inbounds double, ptr %88, i64 1
  %90 = load double, ptr %89, align 8, !tbaa !15
  %91 = load ptr, ptr %2, align 8, !tbaa !10
  %92 = getelementptr inbounds nuw %struct.ARKodeSPRKTableMem, ptr %91, i32 0, i32 2
  %93 = load ptr, ptr %92, align 8, !tbaa !17
  %94 = getelementptr inbounds double, ptr %93, i64 2
  %95 = load double, ptr %94, align 8, !tbaa !15
  %96 = fadd double %90, %95
  %97 = fdiv double %96, 2.000000e+00
  %98 = load ptr, ptr %2, align 8, !tbaa !10
  %99 = getelementptr inbounds nuw %struct.ARKodeSPRKTableMem, ptr %98, i32 0, i32 3
  %100 = load ptr, ptr %99, align 8, !tbaa !18
  %101 = getelementptr inbounds double, ptr %100, i64 2
  store double %97, ptr %101, align 8, !tbaa !15
  %102 = load ptr, ptr %2, align 8, !tbaa !10
  %103 = getelementptr inbounds nuw %struct.ARKodeSPRKTableMem, ptr %102, i32 0, i32 2
  %104 = load ptr, ptr %103, align 8, !tbaa !17
  %105 = getelementptr inbounds double, ptr %104, i64 2
  %106 = load double, ptr %105, align 8, !tbaa !15
  %107 = load ptr, ptr %2, align 8, !tbaa !10
  %108 = getelementptr inbounds nuw %struct.ARKodeSPRKTableMem, ptr %107, i32 0, i32 2
  %109 = load ptr, ptr %108, align 8, !tbaa !17
  %110 = getelementptr inbounds double, ptr %109, i64 3
  %111 = load double, ptr %110, align 8, !tbaa !15
  %112 = fadd double %106, %111
  %113 = fdiv double %112, 2.000000e+00
  %114 = load ptr, ptr %2, align 8, !tbaa !10
  %115 = getelementptr inbounds nuw %struct.ARKodeSPRKTableMem, ptr %114, i32 0, i32 3
  %116 = load ptr, ptr %115, align 8, !tbaa !18
  %117 = getelementptr inbounds double, ptr %116, i64 3
  store double %113, ptr %117, align 8, !tbaa !15
  %118 = load ptr, ptr %2, align 8, !tbaa !10
  %119 = getelementptr inbounds nuw %struct.ARKodeSPRKTableMem, ptr %118, i32 0, i32 3
  %120 = load ptr, ptr %119, align 8, !tbaa !18
  %121 = getelementptr inbounds double, ptr %120, i64 3
  %122 = load double, ptr %121, align 8, !tbaa !15
  %123 = load ptr, ptr %2, align 8, !tbaa !10
  %124 = getelementptr inbounds nuw %struct.ARKodeSPRKTableMem, ptr %123, i32 0, i32 3
  %125 = load ptr, ptr %124, align 8, !tbaa !18
  %126 = getelementptr inbounds double, ptr %125, i64 4
  store double %122, ptr %126, align 8, !tbaa !15
  %127 = load ptr, ptr %2, align 8, !tbaa !10
  %128 = getelementptr inbounds nuw %struct.ARKodeSPRKTableMem, ptr %127, i32 0, i32 3
  %129 = load ptr, ptr %128, align 8, !tbaa !18
  %130 = getelementptr inbounds double, ptr %129, i64 2
  %131 = load double, ptr %130, align 8, !tbaa !15
  %132 = load ptr, ptr %2, align 8, !tbaa !10
  %133 = getelementptr inbounds nuw %struct.ARKodeSPRKTableMem, ptr %132, i32 0, i32 3
  %134 = load ptr, ptr %133, align 8, !tbaa !18
  %135 = getelementptr inbounds double, ptr %134, i64 5
  store double %131, ptr %135, align 8, !tbaa !15
  %136 = load ptr, ptr %2, align 8, !tbaa !10
  %137 = getelementptr inbounds nuw %struct.ARKodeSPRKTableMem, ptr %136, i32 0, i32 3
  %138 = load ptr, ptr %137, align 8, !tbaa !18
  %139 = getelementptr inbounds double, ptr %138, i64 1
  %140 = load double, ptr %139, align 8, !tbaa !15
  %141 = load ptr, ptr %2, align 8, !tbaa !10
  %142 = getelementptr inbounds nuw %struct.ARKodeSPRKTableMem, ptr %141, i32 0, i32 3
  %143 = load ptr, ptr %142, align 8, !tbaa !18
  %144 = getelementptr inbounds double, ptr %143, i64 6
  store double %140, ptr %144, align 8, !tbaa !15
  %145 = load ptr, ptr %2, align 8, !tbaa !10
  %146 = getelementptr inbounds nuw %struct.ARKodeSPRKTableMem, ptr %145, i32 0, i32 3
  %147 = load ptr, ptr %146, align 8, !tbaa !18
  %148 = getelementptr inbounds double, ptr %147, i64 0
  %149 = load double, ptr %148, align 8, !tbaa !15
  %150 = load ptr, ptr %2, align 8, !tbaa !10
  %151 = getelementptr inbounds nuw %struct.ARKodeSPRKTableMem, ptr %150, i32 0, i32 3
  %152 = load ptr, ptr %151, align 8, !tbaa !18
  %153 = getelementptr inbounds double, ptr %152, i64 7
  store double %149, ptr %153, align 8, !tbaa !15
  %154 = load ptr, ptr %2, align 8, !tbaa !10
  store ptr %154, ptr %1, align 8
  store i32 1, ptr %3, align 4
  br label %155

155:                                              ; preds = %8, %7
  call void @llvm.lifetime.end.p0(i64 8, ptr %2) #8
  %156 = load ptr, ptr %1, align 8
  ret ptr %156
}